; Function Attrs: nounwind uwtable
define internal void @gxf_deinit(ptr noundef readonly captures(none) %0) #0 {
  %2 = getelementptr inbounds nuw i8, ptr %0, i64 24
  %3 = load ptr, ptr %2, align 8, !tbaa !24
  %4 = getelementptr inbounds nuw i8, ptr %3, i64 120
  tail call void @av_freep(ptr noundef nonnull %4) #10
  %5 = getelementptr inbounds nuw i8, ptr %3, i64 136
  tail call void @av_freep(ptr noundef nonnull %5) #10
  ret void
}